; Function Attrs: nounwind uwtable
define ptr @Emb_ManFindDistances(ptr noundef captures(none) initializes((64, 72)) %0, ptr noundef readonly captures(none) %1, ptr noundef %2) local_unnamed_addr #1 {
  %4 = getelementptr inbounds nuw i8, ptr %0, i64 68
  store i32 0, ptr %4, align 4, !tbaa !103
  %5 = getelementptr inbounds nuw i8, ptr %0, i64 64
  store i32 0, ptr %5, align 8, !tbaa !104
  %6 = tail call noalias dereferenceable_or_null(16) ptr @malloc(i64 noundef 16) #29
  %7 = getelementptr inbounds nuw i8, ptr %6, i64 4
  store i32 0, ptr %7, align 4, !tbaa !39
  store i32 1000, ptr %6, align 8, !tbaa !40
  %8 = tail call noalias dereferenceable_or_null(4000) ptr @malloc(i64 noundef 4000) #29
  %9 = getelementptr inbounds nuw i8, ptr %6, i64 8
  store ptr %8, ptr %9, align 8, !tbaa !41
  %10 = tail call noalias dereferenceable_or_null(16) ptr @malloc(i64 noundef 16) #29
  %11 = getelementptr inbounds nuw i8, ptr %10, i64 4
  store i32 0, ptr %11, align 4, !tbaa !39
  store i32 1000, ptr %10, align 8, !tbaa !40
  %12 = tail call noalias dereferenceable_or_null(4000) ptr @malloc(i64 noundef 4000) #29
  %13 = getelementptr inbounds nuw i8, ptr %10, i64 8
  store ptr %12, ptr %13, align 8, !tbaa !41
  %14 = getelementptr inbounds nuw i8, ptr %0, i64 32
  %15 = load i32, ptr %14, align 8, !tbaa !87
  %16 = add nsw i32 %15, 1
  store i32 %16, ptr %14, align 8, !tbaa !87
  %17 = getelementptr i8, ptr %0, i64 40
  %18 = getelementptr i8, ptr %1, i64 4
  %.val25 = load i32, ptr %18, align 4, !tbaa !39
  %19 = icmp sgt i32 %.val25, 0
  br i1 %19, label %.lr.ph, label %.critedge

.lr.ph:                                           ; preds = %3
  %20 = getelementptr i8, ptr %1, i64 8
  br label %21

21:                                               ; preds = %.lr.ph, %Vec_IntPush.exit
  %22 = phi ptr [ %8, %.lr.ph ], [ %.pre.i30, %Vec_IntPush.exit ]
  %indvars.iv = phi i64 [ 0, %.lr.ph ], [ %indvars.iv.next, %Vec_IntPush.exit ]
  %.val20 = load ptr, ptr %17, align 8, !tbaa !47
  %.not = icmp eq ptr %.val20, null
  br i1 %.not, label %.critedge, label %23

23:                                               ; preds = %21
  %.val21 = load ptr, ptr %20, align 8, !tbaa !41
  %24 = getelementptr inbounds nuw i32, ptr %.val21, i64 %indvars.iv
  %25 = load i32, ptr %24, align 4, !tbaa !9
  %26 = zext i32 %25 to i64
  %27 = getelementptr inbounds nuw i32, ptr %.val20, i64 %26
  %.val22 = load i32, ptr %14, align 8, !tbaa !87
  %28 = getelementptr inbounds nuw i8, ptr %27, i64 12
  store i32 %.val22, ptr %28, align 4, !tbaa !8
  %29 = getelementptr inbounds nuw i8, ptr %27, i64 8
  %30 = load i32, ptr %29, align 4, !tbaa !3
  %31 = load i32, ptr %7, align 4, !tbaa !39
  %32 = load i32, ptr %6, align 8, !tbaa !40
  %33 = icmp eq i32 %31, %32
  br i1 %33, label %34, label %Vec_IntPush.exit

34:                                               ; preds = %23
  %35 = icmp slt i32 %31, 16
  br i1 %35, label %36, label %41

36:                                               ; preds = %34
  %.not9.i.i = icmp eq ptr %22, null
  br i1 %.not9.i.i, label %39, label %37

37:                                               ; preds = %36
  %38 = tail call dereferenceable_or_null(64) ptr @realloc(ptr noundef nonnull %22, i64 noundef 64) #30
  br label %Vec_IntPush.exit.sink.split

39:                                               ; preds = %36
  %40 = tail call noalias dereferenceable_or_null(64) ptr @malloc(i64 noundef 64) #29
  br label %Vec_IntPush.exit.sink.split

41:                                               ; preds = %34
  %42 = shl nuw nsw i32 %31, 1
  %.not9.i9.i = icmp eq ptr %22, null
  %43 = zext nneg i32 %42 to i64
  %44 = shl nuw nsw i64 %43, 2
  br i1 %.not9.i9.i, label %47, label %45

45:                                               ; preds = %41
  %46 = tail call ptr @realloc(ptr noundef nonnull %22, i64 noundef %44) #30
  br label %Vec_IntPush.exit.sink.split

47:                                               ; preds = %41
  %48 = tail call noalias ptr @malloc(i64 noundef %44) #29
  br label %Vec_IntPush.exit.sink.split

Vec_IntPush.exit.sink.split:                      ; preds = %45, %47, %37, %39
  %.sink31 = phi ptr [ %38, %37 ], [ %40, %39 ], [ %46, %45 ], [ %48, %47 ]
  %.sink = phi i32 [ 16, %37 ], [ 16, %39 ], [ %42, %45 ], [ %42, %47 ]
  store ptr %.sink31, ptr %9, align 8, !tbaa !41
  store i32 %.sink, ptr %6, align 8, !tbaa !40
  br label %Vec_IntPush.exit

Vec_IntPush.exit:                                 ; preds = %Vec_IntPush.exit.sink.split, %23
  %.pre.i30 = phi ptr [ %22, %23 ], [ %.sink31, %Vec_IntPush.exit.sink.split ]
  %49 = add nsw i32 %31, 1
  store i32 %49, ptr %7, align 4, !tbaa !39
  %50 = sext i32 %31 to i64
  %51 = getelementptr inbounds i32, ptr %.pre.i30, i64 %50
  store i32 %30, ptr %51, align 4, !tbaa !9
  %indvars.iv.next = add nuw nsw i64 %indvars.iv, 1
  %.val = load i32, ptr %18, align 4, !tbaa !39
  %52 = sext i32 %.val to i64
  %53 = icmp slt i64 %indvars.iv.next, %52
  br i1 %53, label %21, label %.critedge, !llvm.loop !111

.critedge:                                        ; preds = %21, %Vec_IntPush.exit, %3
  %54 = tail call ptr @Emb_ManPerformBfs(ptr noundef nonnull %0, ptr noundef nonnull %6, ptr noundef nonnull %10, ptr noundef %2)
  %55 = load ptr, ptr %9, align 8, !tbaa !41
  %.not.i = icmp eq ptr %55, null
  br i1 %.not.i, label %Vec_IntFree.exit, label %56

56:                                               ; preds = %.critedge
  tail call void @free(ptr noundef nonnull %55) #27
  br label %Vec_IntFree.exit

Vec_IntFree.exit:                                 ; preds = %.critedge, %56
  tail call void @free(ptr noundef nonnull %6) #27
  %57 = load ptr, ptr %13, align 8, !tbaa !41
  %.not.i23 = icmp eq ptr %57, null
  br i1 %.not.i23, label %Vec_IntFree.exit24, label %58

58:                                               ; preds = %Vec_IntFree.exit
  tail call void @free(ptr noundef nonnull %57) #27
  br label %Vec_IntFree.exit24

Vec_IntFree.exit24:                               ; preds = %Vec_IntFree.exit, %58
  tail call void @free(ptr noundef nonnull %10) #27
  ret ptr %54
}